target datalayout = "e-m:e-p270:32:32-p271:32:32-p272:64:64-i64:64-i128:128-f80:128-n8:16:32:64-S128"
target triple = "x86_64-unknown-linux-gnu"

%"class.icu_75::NGramParser" = type { ptr, i32, ptr, i32, i32, i32, ptr }
%"class.icu_75::InputText" = type <{ ptr, i32, [4 x i8], ptr, i8, [7 x i8], ptr, ptr, i32, [4 x i8] }>

; Function Attrs: mustprogress nounwind uwtable
define noundef i32 @_ZN6icu_7511NGramParser8nextByteEPNS_9InputTextE(ptr noundef nonnull align 8 dereferenceable(48) %this, ptr noundef %det) unnamed_addr #0 align 2 {
entry:
  %retval = alloca i32, align 4
  %this.addr = alloca ptr, align 8
  %det.addr = alloca ptr, align 8
  store ptr %this, ptr %this.addr, align 8
  store ptr %det, ptr %det.addr, align 8
  %this1 = load ptr, ptr %this.addr, align 8
  %byteIndex = getelementptr inbounds %"class.icu_75::NGramParser", ptr %this1, i32 0, i32 5
  %0 = load i32, ptr %byteIndex, align 8
  %1 = load ptr, ptr %det.addr, align 8
  %fInputLen = getelementptr inbounds %"class.icu_75::InputText", ptr %1, i32 0, i32 1
  %2 = load i32, ptr %fInputLen, align 8
  %cmp = icmp sge i32 %0, %2
  br i1 %cmp, label %if.then, label %if.end

if.then:                                          ; preds = %entry
  store i32 -1, ptr %retval, align 4
  br label %return

if.end:                                           ; preds = %entry
  %3 = load ptr, ptr %det.addr, align 8
  %fInputBytes = getelementptr inbounds %"class.icu_75::InputText", ptr %3, i32 0, i32 0
  %4 = load ptr, ptr %fInputBytes, align 8
  %byteIndex2 = getelementptr inbounds %"class.icu_75::NGramParser", ptr %this1, i32 0, i32 5
  %5 = load i32, ptr %byteIndex2, align 8
  %inc = add nsw i32 %5, 1
  store i32 %inc, ptr %byteIndex2, align 8
  %idxprom = sext i32 %5 to i64
  %arrayidx = getelementptr inbounds i8, ptr %4, i64 %idxprom
  %6 = load i8, ptr %arrayidx, align 1
  %conv = zext i8 %6 to i32
  store i32 %conv, ptr %retval, align 4
  br label %return

return:                                           ; preds = %if.end, %if.then
  %7 = load i32, ptr %retval, align 4
  ret i32 %7
}