; Function Attrs: mustprogress nofree norecurse nosync nounwind willreturn memory(read, argmem: readwrite, inaccessiblemem: none) uwtable
define noundef i32 @_ZN6icu_7511NGramParser8nextByteEPNS_9InputTextE(ptr nocapture noundef nonnull align 8 dereferenceable(48) %this, ptr nocapture noundef readonly %det) unnamed_addr #5 align 2 {
entry:
  %byteIndex = getelementptr inbounds i8, ptr %this, i64 32
  %0 = load i32, ptr %byteIndex, align 8
  %fInputLen = getelementptr inbounds i8, ptr %det, i64 8
  %1 = load i32, ptr %fInputLen, align 8
  %cmp.not = icmp slt i32 %0, %1
  br i1 %cmp.not, label %if.end, label %return

if.end:                                           ; preds = %entry
  %2 = load ptr, ptr %det, align 8
  %inc = add nsw i32 %0, 1
  store i32 %inc, ptr %byteIndex, align 8
  %idxprom = sext i32 %0 to i64
  %arrayidx = getelementptr inbounds i8, ptr %2, i64 %idxprom
  %3 = load i8, ptr %arrayidx, align 1
  %conv = zext i8 %3 to i32
  br label %return

return:                                           ; preds = %entry, %if.end
  %retval.0 = phi i32 [ %conv, %if.end ], [ -1, %entry ]
  ret i32 %retval.0
}